EXPORTS
    _ZN6Visual10NumberEditC1Ev @1
    _ZN6Visual10NumberEditC2Ev @2
    _ZN6Visual11RadioButtonC1Ev @3
    _ZN6Visual11RadioButtonC2Ev @4
    _ZN6Visual12MultiListBox11GetItemDataEi @5
    _ZN6Visual12MultiListBox11SetItemDataEPvi @6
    _ZN6Visual12MultiListBox12SetSelectionEib @7
    _ZN6Visual12MultiListBox14initPropertiesEv @8
    _ZN6Visual12MultiListBox15RemoveAndDeleteEi @9
    _ZN6Visual12MultiListBox3AddEPKNSt7__cxx1112basic_stringIcSt11char_traitsIcESaIcEEE @10
    _ZN6Visual12MultiListBox5AddOnEPNSt7__cxx1112basic_stringIcSt11char_traitsIcESaIcEEEi @11
    _ZN6Visual12MultiListBox5ClearEv @12
    _ZN6Visual12MultiListBox6CreateEv @13
    _ZN6Visual12MultiListBox6RemoveB5cxx11Ei @14
    _ZN6Visual12MultiListBox6UpdateEPNSt7__cxx1112basic_stringIcSt11char_traitsIcESaIcEEEi @15
    _ZN6Visual12MultiListBox8GetIndexENSt7__cxx1112basic_stringIcSt11char_traitsIcESaIcEEE @16
    _ZN6Visual12MultiListBox9ProcedureEP6HWND__jyx @17
    _ZN6Visual12MultiListBoxC1Ev @18
    _ZN6Visual12MultiListBoxC2Ev @19
    _ZN6Visual12MultiListBoxixB5cxx11Ei @20
    _ZN6Visual14NamedContainer14initPropertiesEv @21
    _ZN6Visual14NamedContainer6CreateEv @22
    _ZN6Visual14NamedContainer9ProcedureEP6HWND__jyx @23
    _ZN6Visual14NamedContainerC1Ev @24
    _ZN6Visual14NamedContainerC2Ev @25
    _ZN6Visual16RadioButtonGroup13SelectedIndexEi @26
    _ZN6Visual16RadioButtonGroup14ClearSelectionEv @27
    _ZN6Visual16RadioButtonGroup14initPropertiesEv @28
    _ZN6Visual16RadioButtonGroup15RemoveAndDeleteEi @29
    _ZN6Visual16RadioButtonGroup3AddEPNS_11RadioButtonE @30
    _ZN6Visual16RadioButtonGroup6CreateEv @31
    _ZN6Visual16RadioButtonGroup6RemoveEi @32
    _ZN6Visual16RadioButtonGroup7DestroyEv @33
    _ZN6Visual16RadioButtonGroup9ProcedureEP6HWND__jyx @34
    _ZN6Visual16RadioButtonGroupC1Ev @35
    _ZN6Visual16RadioButtonGroupC2Ev @36
    _ZN6Visual16RadioButtonGroupixEi @37
    _ZN6Visual4Edit6CreateEv @38
    _ZN6Visual4Edit9ProcedureEP6HWND__jyx @39
    _ZN6Visual4EditC1Ev @40
    _ZN6Visual4EditC2Ev @41
    _ZN6Visual5Label14initPropertiesEv @42
    _ZN6Visual5Label6CreateEv @43
    _ZN6Visual5LabelC1Ev @44
    _ZN6Visual5LabelC2Ev @45
    _ZN6Visual6Button6CreateEv @46
    _ZN6Visual6Button9ProcedureEP6HWND__jyx @47
    _ZN6Visual6ButtonC1Ev @48
    _ZN6Visual6ButtonC2Ev @49
    _ZN6Visual6Window4LoopEv @50
    _ZN6Visual6Window6CreateEv @51
    _ZN6Visual6Window9ProcedureEP6HWND__jyx @52
    _ZN6Visual6WindowC1EbbbPcP7HMENU__ @53
    _ZN6Visual6WindowC2EbbbPcP7HMENU__ @54
    _ZN6Visual7ListBox11GetItemDataEi @55
    _ZN6Visual7ListBox11SetItemDataEPvi @56
    _ZN6Visual7ListBox12SetSelectionEi @57
    _ZN6Visual7ListBox14initPropertiesEv @58
    _ZN6Visual7ListBox15RemoveAndDeleteEi @59
    _ZN6Visual7ListBox3AddEPKNSt7__cxx1112basic_stringIcSt11char_traitsIcESaIcEEE @60
    _ZN6Visual7ListBox5AddOnEPNSt7__cxx1112basic_stringIcSt11char_traitsIcESaIcEEEi @61
    _ZN6Visual7ListBox5ClearEv @62
    _ZN6Visual7ListBox6CreateEv @63
    _ZN6Visual7ListBox6RemoveB5cxx11Ei @64
    _ZN6Visual7ListBox6UpdateEPNSt7__cxx1112basic_stringIcSt11char_traitsIcESaIcEEEi @65
    _ZN6Visual7ListBox8GetIndexENSt7__cxx1112basic_stringIcSt11char_traitsIcESaIcEEE @66
    _ZN6Visual7ListBox9ProcedureEP6HWND__jyx @67
    _ZN6Visual7ListBoxC1Ev @68
    _ZN6Visual7ListBoxC2Ev @69
    _ZN6Visual7ListBoxixB5cxx11Ei @70
    _ZN6Visual8Checkbox14initPropertiesEv @71
    _ZN6Visual8Checkbox19SetNoTriggerCheckedEb @72
    _ZN6Visual8Checkbox6CreateEv @73
    _ZN6Visual8Checkbox9ProcedureEP6HWND__jyx @74
    _ZN6Visual8CheckboxC1Ev @75
    _ZN6Visual8CheckboxC2Ev @76
    _ZN6Visual8ComboBox11GetItemDataEi @77
    _ZN6Visual8ComboBox11SetItemDataEPvi @78
    _ZN6Visual8ComboBox12SetSelectionEi @79
    _ZN6Visual8ComboBox14initPropertiesEv @80
    _ZN6Visual8ComboBox15RemoveAndDeleteEi @81
    _ZN6Visual8ComboBox3AddEPKNSt7__cxx1112basic_stringIcSt11char_traitsIcESaIcEEE @82
    _ZN6Visual8ComboBox5AddOnEPNSt7__cxx1112basic_stringIcSt11char_traitsIcESaIcEEEi @83
    _ZN6Visual8ComboBox5ClearEv @84
    _ZN6Visual8ComboBox6CreateEv @85
    _ZN6Visual8ComboBox6RemoveB5cxx11Ei @86
    _ZN6Visual8ComboBox6UpdateEPNSt7__cxx1112basic_stringIcSt11char_traitsIcESaIcEEEi @87
    _ZN6Visual8ComboBox8GetIndexENSt7__cxx1112basic_stringIcSt11char_traitsIcESaIcEEE @88
    _ZN6Visual8ComboBox9ProcedureEP6HWND__jyx @89
    _ZN6Visual8ComboBoxC1Ev @90
    _ZN6Visual8ComboBoxC2Ev @91
    _ZN6Visual8ComboBoxixB5cxx11Ei @92
    _ZN6Visual9Container15RemoveAndDeleteEi @93
    _ZN6Visual9Container3AddEPNS_10IComponentE @94
    _ZN6Visual9Container6CreateEv @95
    _ZN6Visual9Container6RemoveEi @96
    _ZN6Visual9Container7DestroyEv @97
    _ZN6Visual9Container9ProcedureEP6HWND__jyx @98
    _ZN6Visual9ContainerC1Ev @99
    _ZN6Visual9ContainerC2Ev @100
    _ZN6Visual9ContainerixEi @101
    _ZTIN6Visual10IClickableE @102 DATA
    _ZTIN6Visual10IComponentE @103 DATA
    _ZTIN6Visual10IContainerIKNSt7__cxx1112basic_stringIcSt11char_traitsIcESaIcEEESt6vectorIPS7_SaIS9_EEEE @104 DATA
    _ZTIN6Visual10IContainerINS_10IComponentESt6vectorIPS1_SaIS3_EEEE @105 DATA
    _ZTIN6Visual10IResizableE @106 DATA
    _ZTIN6Visual10NumberEditE @107 DATA
    _ZTIN6Visual11ISelectableISt6vectorIiSaIiEENS_12MultiListBoxEEE @108 DATA
    _ZTIN6Visual11ISelectableIiNS_7ListBoxEEE @109 DATA
    _ZTIN6Visual11ISelectableIiNS_8ComboBoxEEE @110 DATA
    _ZTIN6Visual11RadioButtonE @111 DATA
    _ZTIN6Visual12MultiListBoxE @112 DATA
    _ZTIN6Visual14NamedContainerE @113 DATA
    _ZTIN6Visual16RadioButtonGroupE @114 DATA
    _ZTIN6Visual4EditE @115 DATA
    _ZTIN6Visual5LabelE @116 DATA
    _ZTIN6Visual6ButtonE @117 DATA
    _ZTIN6Visual6WindowE @118 DATA
    _ZTIN6Visual7ListBoxE @119 DATA
    _ZTIN6Visual8CheckboxE @120 DATA
    _ZTIN6Visual8ComboBoxE @121 DATA
    _ZTIN6Visual9ContainerE @122 DATA
    _ZTIN6Visual9IEditableE @123 DATA
    _ZTTN6Visual16RadioButtonGroupE @124 DATA
    _ZTVN6Visual10IClickableE @125 DATA
    _ZTVN6Visual10IComponentE @126 DATA
    _ZTVN6Visual10IContainerIKNSt7__cxx1112basic_stringIcSt11char_traitsIcESaIcEEESt6vectorIPS7_SaIS9_EEEE @127 DATA
    _ZTVN6Visual10IContainerINS_10IComponentESt6vectorIPS1_SaIS3_EEEE @128 DATA
    _ZTVN6Visual10IResizableE @129 DATA
    _ZTVN6Visual10NumberEditE @130 DATA
    _ZTVN6Visual11ISelectableISt6vectorIiSaIiEENS_12MultiListBoxEEE @131 DATA
    _ZTVN6Visual11ISelectableIiNS_7ListBoxEEE @132 DATA
    _ZTVN6Visual11ISelectableIiNS_8ComboBoxEEE @133 DATA
    _ZTVN6Visual11RadioButtonE @134 DATA
    _ZTVN6Visual12MultiListBoxE @135 DATA
    _ZTVN6Visual14NamedContainerE @136 DATA
    _ZTVN6Visual16RadioButtonGroupE @137 DATA
    _ZTVN6Visual4EditE @138 DATA
    _ZTVN6Visual5LabelE @139 DATA
    _ZTVN6Visual6ButtonE @140 DATA
    _ZTVN6Visual6WindowE @141 DATA
    _ZTVN6Visual7ListBoxE @142 DATA
    _ZTVN6Visual8CheckboxE @143 DATA
    _ZTVN6Visual8ComboBoxE @144 DATA
    _ZTVN6Visual9ContainerE @145 DATA
    _ZTVN6Visual9IEditableE @146 DATA
    _ZThn1016_N6Visual12MultiListBox14initPropertiesEv @147
    _ZThn1016_N6Visual12MultiListBox9ProcedureEP6HWND__jyx @148
    _ZThn1016_N6Visual7ListBox14initPropertiesEv @149
    _ZThn1016_N6Visual7ListBox9ProcedureEP6HWND__jyx @150
    _ZThn1016_N6Visual8ComboBox14initPropertiesEv @151
    _ZThn1016_N6Visual8ComboBox9ProcedureEP6HWND__jyx @152
    _ZThn1120_N6Visual6Window9ProcedureEP6HWND__jyx @153
    _ZThn808_N6Visual12MultiListBox15RemoveAndDeleteEi @154
    _ZThn808_N6Visual12MultiListBox3AddEPKNSt7__cxx1112basic_stringIcSt11char_traitsIcESaIcEEE @155
    _ZThn808_N6Visual12MultiListBox5ClearEv @156
    _ZThn808_N6Visual12MultiListBox6RemoveB5cxx11Ei @157
    _ZThn808_N6Visual12MultiListBox9ProcedureEP6HWND__jyx @158
    _ZThn808_N6Visual12MultiListBoxixB5cxx11Ei @159
    _ZThn808_N6Visual14NamedContainer9ProcedureEP6HWND__jyx @160
    _ZThn808_N6Visual6Window9ProcedureEP6HWND__jyx @161
    _ZThn808_N6Visual7ListBox15RemoveAndDeleteEi @162
    _ZThn808_N6Visual7ListBox3AddEPKNSt7__cxx1112basic_stringIcSt11char_traitsIcESaIcEEE @163
    _ZThn808_N6Visual7ListBox5ClearEv @164
    _ZThn808_N6Visual7ListBox6RemoveB5cxx11Ei @165
    _ZThn808_N6Visual7ListBox9ProcedureEP6HWND__jyx @166
    _ZThn808_N6Visual7ListBoxixB5cxx11Ei @167
    _ZThn808_N6Visual8ComboBox15RemoveAndDeleteEi @168
    _ZThn808_N6Visual8ComboBox3AddEPKNSt7__cxx1112basic_stringIcSt11char_traitsIcESaIcEEE @169
    _ZThn808_N6Visual8ComboBox5ClearEv @170
    _ZThn808_N6Visual8ComboBox6RemoveB5cxx11Ei @171
    _ZThn808_N6Visual8ComboBox9ProcedureEP6HWND__jyx @172
    _ZThn808_N6Visual8ComboBoxixB5cxx11Ei @173
    _ZThn808_N6Visual9Container15RemoveAndDeleteEi @174
    _ZThn808_N6Visual9Container3AddEPNS_10IComponentE @175
    _ZThn808_N6Visual9Container6RemoveEi @176
    _ZThn808_N6Visual9Container9ProcedureEP6HWND__jyx @177
    _ZThn808_N6Visual9ContainerixEi @178
    _ZThn992_N6Visual4Edit9ProcedureEP6HWND__jyx @179
    _ZThn992_N6Visual6Button9ProcedureEP6HWND__jyx @180
    _ZThn992_N6Visual8Checkbox9ProcedureEP6HWND__jyx @181
    _ZTv0_n24_N6Visual16RadioButtonGroup6CreateEv @182
    _ZTv0_n32_N6Visual16RadioButtonGroup7DestroyEv @183
    _ZTv0_n40_N6Visual16RadioButtonGroup9ProcedureEP6HWND__jyx @184
    _ZTv0_n56_N6Visual16RadioButtonGroup14initPropertiesEv @185
    _ZTv0_n72_N6Visual16RadioButtonGroup6RemoveEi @186
    _ZTv0_n80_N6Visual16RadioButtonGroup15RemoveAndDeleteEi @187
    _ZTv0_n88_N6Visual16RadioButtonGroupixEi @188
    _ZTvn808_n40_N6Visual16RadioButtonGroup9ProcedureEP6HWND__jyx @189
    _ZTvn808_n72_N6Visual16RadioButtonGroup6RemoveEi @190
    _ZTvn808_n80_N6Visual16RadioButtonGroup15RemoveAndDeleteEi @191
    _ZTvn808_n88_N6Visual16RadioButtonGroupixEi @192
